; Function Attrs: nounwind uwtable
define ptr @l_Lean_Compiler_LCNF_Testing_assert(i8 noundef zeroext %0, ptr noundef %1, ptr readnone captures(none) %2, ptr readnone captures(none) %3, ptr noundef %4, ptr noundef readonly captures(none) %5, ptr noundef %6, ptr noundef %7) local_unnamed_addr #0 {
  %9 = icmp eq i8 %0, 0
  br i1 %9, label %10, label %18

10:                                               ; preds = %8
  tail call void @lean_inc_heartbeat() #5
  %11 = tail call noalias ptr @mi_malloc_small(i64 noundef 16) #5
  %12 = icmp eq ptr %11, null
  br i1 %12, label %13, label %lean_alloc_ctor.exit

13:                                               ; preds = %10
  tail call void @lean_internal_panic_out_of_memory() #6
  unreachable

lean_alloc_ctor.exit:                             ; preds = %10
  %14 = getelementptr inbounds nuw i8, ptr %11, i64 4
  store i32 1, ptr %11, align 4, !tbaa !9
  store i32 50397200, ptr %14, align 4
  %15 = getelementptr inbounds nuw i8, ptr %11, i64 8
  store ptr %1, ptr %15, align 8, !tbaa !7
  %16 = tail call ptr @l_Lean_MessageData_ofFormat(ptr noundef nonnull %11) #5
  %17 = tail call ptr @l_Lean_throwError___at_Lean_Compiler_LCNF_Testing_assert___spec__1(ptr noundef %16, ptr poison, ptr poison, ptr noundef %4, ptr noundef %5, ptr noundef %6, ptr noundef %7)
  br label %34

18:                                               ; preds = %8
  %19 = ptrtoint ptr %1 to i64
  %20 = and i64 %19, 1
  %.not = icmp eq i64 %20, 0
  br i1 %.not, label %21, label %lean_dec.exit

21:                                               ; preds = %18
  %22 = load i32, ptr %1, align 4, !tbaa !9
  %23 = icmp sgt i32 %22, 1
  br i1 %23, label %24, label %26, !prof !12

24:                                               ; preds = %21
  %25 = add nsw i32 %22, -1
  store i32 %25, ptr %1, align 4, !tbaa !9
  br label %lean_dec.exit

26:                                               ; preds = %21
  %.not.i = icmp eq i32 %22, 0
  br i1 %.not.i, label %lean_dec.exit, label %27

27:                                               ; preds = %26
  tail call void @lean_dec_ref_cold(ptr noundef nonnull %1) #5
  br label %lean_dec.exit

lean_dec.exit:                                    ; preds = %27, %26, %24, %18
  tail call void @lean_inc_heartbeat() #5
  %28 = tail call noalias ptr @mi_malloc_small(i64 noundef 24) #5
  %29 = icmp eq ptr %28, null
  br i1 %29, label %30, label %lean_alloc_ctor.exit18

30:                                               ; preds = %lean_dec.exit
  tail call void @lean_internal_panic_out_of_memory() #6
  unreachable

lean_alloc_ctor.exit18:                           ; preds = %lean_dec.exit
  %31 = getelementptr inbounds nuw i8, ptr %28, i64 4
  store i32 1, ptr %28, align 4, !tbaa !9
  store i32 131096, ptr %31, align 4
  %32 = getelementptr inbounds nuw i8, ptr %28, i64 8
  store ptr inttoptr (i64 1 to ptr), ptr %32, align 8, !tbaa !7
  %33 = getelementptr inbounds nuw i8, ptr %28, i64 16
  store ptr %7, ptr %33, align 8, !tbaa !7
  br label %34

34:                                               ; preds = %lean_alloc_ctor.exit18, %lean_alloc_ctor.exit
  %.0 = phi ptr [ %17, %lean_alloc_ctor.exit ], [ %28, %lean_alloc_ctor.exit18 ]
  ret ptr %.0
}